target datalayout = "e-m:e-p270:32:32-p271:32:32-p272:64:64-i64:64-i128:128-f80:128-n8:16:32:64-S128"
target triple = "x86_64-pc-linux-gnu"

%struct.eio_obj = type { i32, ptr, ptr, i8 }
%struct.client_io_info = type { i32, ptr, %struct.io_hdr_t, ptr, i32, i8, ptr, ptr, i32, i8, i32, i32, i8, i32, i8 }
%struct.io_hdr_t = type { i32, i16, i16, i32 }
%struct.io_buf = type { i32, i32, ptr }

@.str.49 = private unnamed_addr constant [23 x i8] c"Entering _client_write\00", align 1
@.str.50 = private unnamed_addr constant [36 x i8] c"_client_write: nothing in the queue\00", align 1
@.str.51 = private unnamed_addr constant [51 x i8] c"  dequeue successful, client->out_msg->length = %d\00", align 1
@.str.52 = private unnamed_addr constant [29 x i8] c"  client->out_remaining = %d\00", align 1
@.str.53 = private unnamed_addr constant [30 x i8] c"_client_write returned EAGAIN\00", align 1
@.str.54 = private unnamed_addr constant [36 x i8] c"Only wrote %d of %d bytes to socket\00", align 1
@.str.55 = private unnamed_addr constant [25 x i8] c"Wrote %d bytes to socket\00", align 1

; Function Attrs: nounwind uwtable
define internal void @_free_all_outgoing_msgs(ptr noundef %0, ptr noundef %1) #0 {
  %3 = alloca ptr, align 8
  %4 = alloca ptr, align 8
  %5 = alloca ptr, align 8
  %6 = alloca ptr, align 8
  store ptr %0, ptr %3, align 8
  store ptr %1, ptr %4, align 8
  call void @llvm.lifetime.start.p0(i64 8, ptr %5) #10
  call void @llvm.lifetime.start.p0(i64 8, ptr %6) #10
  %7 = load ptr, ptr %3, align 8
  %8 = call ptr @list_iterator_create(ptr noundef %7)
  store ptr %8, ptr %5, align 8
  br label %9

9:                                                ; preds = %13, %2
  %10 = load ptr, ptr %5, align 8
  %11 = call ptr @list_next(ptr noundef %10)
  store ptr %11, ptr %6, align 8
  %12 = icmp ne ptr %11, null
  br i1 %12, label %13, label %16

13:                                               ; preds = %9
  %14 = load ptr, ptr %6, align 8
  %15 = load ptr, ptr %4, align 8
  call void @_free_outgoing_msg(ptr noundef %14, ptr noundef %15)
  br label %9, !llvm.loop !29

16:                                               ; preds = %9
  %17 = load ptr, ptr %5, align 8
  call void @list_iterator_destroy(ptr noundef %17)
  call void @llvm.lifetime.end.p0(i64 8, ptr %6) #10
  call void @llvm.lifetime.end.p0(i64 8, ptr %5) #10
  ret void
}

; Function Attrs: nounwind uwtable
define internal i32 @_client_write(ptr noundef %0, ptr noundef %1) #0 {
  %3 = alloca i32, align 4
  %4 = alloca ptr, align 8
  %5 = alloca ptr, align 8
  %6 = alloca ptr, align 8
  %7 = alloca ptr, align 8
  %8 = alloca i32, align 4
  %9 = alloca i32, align 4
  store ptr %0, ptr %4, align 8
  store ptr %1, ptr %5, align 8
  call void @llvm.lifetime.start.p0(i64 8, ptr %6) #10
  %10 = load ptr, ptr %4, align 8
  %11 = getelementptr inbounds nuw %struct.eio_obj, ptr %10, i32 0, i32 1
  %12 = load ptr, ptr %11, align 8
  store ptr %12, ptr %6, align 8
  call void @llvm.lifetime.start.p0(i64 8, ptr %7) #10
  call void @llvm.lifetime.start.p0(i64 4, ptr %8) #10
  br label %13

13:                                               ; preds = %2
  br label %14

14:                                               ; preds = %13
  %15 = call i32 @get_log_level()
  %16 = icmp sge i32 %15, 8
  br i1 %16, label %17, label %18

17:                                               ; preds = %14
  call void (i32, ptr, ...) @log_var(i32 noundef 8, ptr noundef @.str.49)
  br label %18

18:                                               ; preds = %17, %14
  br label %19

19:                                               ; preds = %18
  br label %20

20:                                               ; preds = %19
  br label %21

21:                                               ; preds = %20
  br label %22

22:                                               ; preds = %21
  %23 = load ptr, ptr %6, align 8
  %24 = getelementptr inbounds nuw %struct.client_io_info, ptr %23, i32 0, i32 7
  %25 = load ptr, ptr %24, align 8
  %26 = icmp eq ptr %25, null
  br i1 %26, label %27, label %72

27:                                               ; preds = %22
  %28 = load ptr, ptr %6, align 8
  %29 = getelementptr inbounds nuw %struct.client_io_info, ptr %28, i32 0, i32 6
  %30 = load ptr, ptr %29, align 8
  %31 = call ptr @list_dequeue(ptr noundef %30)
  %32 = load ptr, ptr %6, align 8
  %33 = getelementptr inbounds nuw %struct.client_io_info, ptr %32, i32 0, i32 7
  store ptr %31, ptr %33, align 8
  %34 = load ptr, ptr %6, align 8
  %35 = getelementptr inbounds nuw %struct.client_io_info, ptr %34, i32 0, i32 7
  %36 = load ptr, ptr %35, align 8
  %37 = icmp eq ptr %36, null
  br i1 %37, label %38, label %49

38:                                               ; preds = %27
  br label %39

39:                                               ; preds = %38
  br label %40

40:                                               ; preds = %39
  %41 = call i32 @get_log_level()
  %42 = icmp sge i32 %41, 9
  br i1 %42, label %43, label %44

43:                                               ; preds = %40
  call void (i32, ptr, ...) @log_var(i32 noundef 9, ptr noundef @.str.50)
  br label %44

44:                                               ; preds = %43, %40
  br label %45

45:                                               ; preds = %44
  br label %46

46:                                               ; preds = %45
  br label %47

47:                                               ; preds = %46
  br label %48

48:                                               ; preds = %47
  store i32 0, ptr %3, align 4
  store i32 1, ptr %9, align 4
  br label %191

49:                                               ; preds = %27
  br label %50

50:                                               ; preds = %49
  br label %51

51:                                               ; preds = %50
  %52 = call i32 @get_log_level()
  %53 = icmp sge i32 %52, 9
  br i1 %53, label %54, label %60

54:                                               ; preds = %51
  %55 = load ptr, ptr %6, align 8
  %56 = getelementptr inbounds nuw %struct.client_io_info, ptr %55, i32 0, i32 7
  %57 = load ptr, ptr %56, align 8
  %58 = getelementptr inbounds nuw %struct.io_buf, ptr %57, i32 0, i32 1
  %59 = load i32, ptr %58, align 4
  call void (i32, ptr, ...) @log_var(i32 noundef 9, ptr noundef @.str.51, i32 noundef %59)
  br label %60

60:                                               ; preds = %54, %51
  br label %61

61:                                               ; preds = %60
  br label %62

62:                                               ; preds = %61
  br label %63

63:                                               ; preds = %62
  br label %64

64:                                               ; preds = %63
  %65 = load ptr, ptr %6, align 8
  %66 = getelementptr inbounds nuw %struct.client_io_info, ptr %65, i32 0, i32 7
  %67 = load ptr, ptr %66, align 8
  %68 = getelementptr inbounds nuw %struct.io_buf, ptr %67, i32 0, i32 1
  %69 = load i32, ptr %68, align 4
  %70 = load ptr, ptr %6, align 8
  %71 = getelementptr inbounds nuw %struct.client_io_info, ptr %70, i32 0, i32 8
  store i32 %69, ptr %71, align 8
  br label %72

72:                                               ; preds = %64, %22
  br label %73

73:                                               ; preds = %72
  br label %74

74:                                               ; preds = %73
  %75 = call i32 @get_log_level()
  %76 = icmp sge i32 %75, 9
  br i1 %76, label %77, label %81

77:                                               ; preds = %74
  %78 = load ptr, ptr %6, align 8
  %79 = getelementptr inbounds nuw %struct.client_io_info, ptr %78, i32 0, i32 8
  %80 = load i32, ptr %79, align 8
  call void (i32, ptr, ...) @log_var(i32 noundef 9, ptr noundef @.str.52, i32 noundef %80)
  br label %81

81:                                               ; preds = %77, %74
  br label %82

82:                                               ; preds = %81
  br label %83

83:                                               ; preds = %82
  br label %84

84:                                               ; preds = %83
  br label %85

85:                                               ; preds = %84
  %86 = load ptr, ptr %6, align 8
  %87 = getelementptr inbounds nuw %struct.client_io_info, ptr %86, i32 0, i32 7
  %88 = load ptr, ptr %87, align 8
  %89 = getelementptr inbounds nuw %struct.io_buf, ptr %88, i32 0, i32 2
  %90 = load ptr, ptr %89, align 8
  %91 = load ptr, ptr %6, align 8
  %92 = getelementptr inbounds nuw %struct.client_io_info, ptr %91, i32 0, i32 7
  %93 = load ptr, ptr %92, align 8
  %94 = getelementptr inbounds nuw %struct.io_buf, ptr %93, i32 0, i32 1
  %95 = load i32, ptr %94, align 4
  %96 = load ptr, ptr %6, align 8
  %97 = getelementptr inbounds nuw %struct.client_io_info, ptr %96, i32 0, i32 8
  %98 = load i32, ptr %97, align 8
  %99 = sub i32 %95, %98
  %100 = zext i32 %99 to i64
  %101 = getelementptr inbounds nuw i8, ptr %90, i64 %100
  store ptr %101, ptr %7, align 8
  br label %102

102:                                              ; preds = %118, %85
  %103 = load ptr, ptr %4, align 8
  %104 = getelementptr inbounds nuw %struct.eio_obj, ptr %103, i32 0, i32 0
  %105 = load i32, ptr %104, align 8
  %106 = load ptr, ptr %7, align 8
  %107 = load ptr, ptr %6, align 8
  %108 = getelementptr inbounds nuw %struct.client_io_info, ptr %107, i32 0, i32 8
  %109 = load i32, ptr %108, align 8
  %110 = sext i32 %109 to i64
  %111 = call i64 @write(i32 noundef %105, ptr noundef %106, i64 noundef %110)
  %112 = trunc i64 %111 to i32
  store i32 %112, ptr %8, align 4
  %113 = icmp slt i32 %112, 0
  br i1 %113, label %114, label %147

114:                                              ; preds = %102
  %115 = call ptr @__errno_location() #11
  %116 = load i32, ptr %115, align 4
  %117 = icmp eq i32 %116, 4
  br i1 %117, label %118, label %119

118:                                              ; preds = %114
  br label %102

119:                                              ; preds = %114
  %120 = call ptr @__errno_location() #11
  %121 = load i32, ptr %120, align 4
  %122 = icmp eq i32 %121, 11
  br i1 %122, label %127, label %123

123:                                              ; preds = %119
  %124 = call ptr @__errno_location() #11
  %125 = load i32, ptr %124, align 4
  %126 = icmp eq i32 %125, 11
  br i1 %126, label %127, label %138

127:                                              ; preds = %123, %119
  br label %128

128:                                              ; preds = %127
  br label %129

129:                                              ; preds = %128
  %130 = call i32 @get_log_level()
  %131 = icmp sge i32 %130, 9
  br i1 %131, label %132, label %133

132:                                              ; preds = %129
  call void (i32, ptr, ...) @log_var(i32 noundef 9, ptr noundef @.str.53)
  br label %133

133:                                              ; preds = %132, %129
  br label %134

134:                                              ; preds = %133
  br label %135

135:                                              ; preds = %134
  br label %136

136:                                              ; preds = %135
  br label %137

137:                                              ; preds = %136
  store i32 0, ptr %3, align 4
  store i32 1, ptr %9, align 4
  br label %191

138:                                              ; preds = %123
  %139 = load ptr, ptr %6, align 8
  %140 = getelementptr inbounds nuw %struct.client_io_info, ptr %139, i32 0, i32 9
  store i8 1, ptr %140, align 4
  %141 = load ptr, ptr %6, align 8
  %142 = getelementptr inbounds nuw %struct.client_io_info, ptr %141, i32 0, i32 6
  %143 = load ptr, ptr %142, align 8
  %144 = load ptr, ptr %6, align 8
  %145 = getelementptr inbounds nuw %struct.client_io_info, ptr %144, i32 0, i32 1
  %146 = load ptr, ptr %145, align 8
  call void @_free_all_outgoing_msgs(ptr noundef %143, ptr noundef %146)
  store i32 0, ptr %3, align 4
  store i32 1, ptr %9, align 4
  br label %191

147:                                              ; preds = %102
  %148 = load i32, ptr %8, align 4
  %149 = load ptr, ptr %6, align 8
  %150 = getelementptr inbounds nuw %struct.client_io_info, ptr %149, i32 0, i32 8
  %151 = load i32, ptr %150, align 8
  %152 = icmp slt i32 %148, %151
  br i1 %152, label %153, label %159

153:                                              ; preds = %147
  %154 = load i32, ptr %8, align 4
  %155 = load ptr, ptr %6, align 8
  %156 = getelementptr inbounds nuw %struct.client_io_info, ptr %155, i32 0, i32 8
  %157 = load i32, ptr %156, align 8
  %158 = call i32 (ptr, ...) @error(ptr noundef @.str.54, i32 noundef %154, i32 noundef %157)
  br label %171

159:                                              ; preds = %147
  br label %160

160:                                              ; preds = %159
  br label %161

161:                                              ; preds = %160
  %162 = call i32 @get_log_level()
  %163 = icmp sge i32 %162, 9
  br i1 %163, label %164, label %166

164:                                              ; preds = %161
  %165 = load i32, ptr %8, align 4
  call void (i32, ptr, ...) @log_var(i32 noundef 9, ptr noundef @.str.55, i32 noundef %165)
  br label %166

166:                                              ; preds = %164, %161
  br label %167

167:                                              ; preds = %166
  br label %168

168:                                              ; preds = %167
  br label %169

169:                                              ; preds = %168
  br label %170

170:                                              ; preds = %169
  br label %171

171:                                              ; preds = %170, %153
  %172 = load i32, ptr %8, align 4
  %173 = load ptr, ptr %6, align 8
  %174 = getelementptr inbounds nuw %struct.client_io_info, ptr %173, i32 0, i32 8
  %175 = load i32, ptr %174, align 8
  %176 = sub nsw i32 %175, %172
  store i32 %176, ptr %174, align 8
  %177 = load ptr, ptr %6, align 8
  %178 = getelementptr inbounds nuw %struct.client_io_info, ptr %177, i32 0, i32 8
  %179 = load i32, ptr %178, align 8
  %180 = icmp sgt i32 %179, 0
  br i1 %180, label %181, label %182

181:                                              ; preds = %171
  store i32 0, ptr %3, align 4
  store i32 1, ptr %9, align 4
  br label %191

182:                                              ; preds = %171
  %183 = load ptr, ptr %6, align 8
  %184 = getelementptr inbounds nuw %struct.client_io_info, ptr %183, i32 0, i32 7
  %185 = load ptr, ptr %184, align 8
  %186 = load ptr, ptr %6, align 8
  %187 = getelementptr inbounds nuw %struct.client_io_info, ptr %186, i32 0, i32 1
  %188 = load ptr, ptr %187, align 8
  call void @_free_outgoing_msg(ptr noundef %185, ptr noundef %188)
  %189 = load ptr, ptr %6, align 8
  %190 = getelementptr inbounds nuw %struct.client_io_info, ptr %189, i32 0, i32 7
  store ptr null, ptr %190, align 8
  store i32 0, ptr %3, align 4
  store i32 1, ptr %9, align 4
  br label %191

191:                                              ; preds = %182, %181, %138, %137, %48
  call void @llvm.lifetime.end.p0(i64 4, ptr %8) #10
  call void @llvm.lifetime.end.p0(i64 8, ptr %7) #10
  call void @llvm.lifetime.end.p0(i64 8, ptr %6) #10
  %192 = load i32, ptr %3, align 4
  ret i32 %192
}