; Function Attrs: nounwind uwtable
define internal noundef i32 @_client_write(ptr noundef readonly captures(none) %0, ptr readnone captures(none) %1) #0 {
  %3 = getelementptr inbounds nuw i8, ptr %0, i64 8
  %4 = load ptr, ptr %3, align 8
  %5 = tail call i32 @get_log_level() #11
  %6 = icmp sgt i32 %5, 7
  br i1 %6, label %7, label %8

7:                                                ; preds = %2
  tail call void (i32, ptr, ...) @log_var(i32 noundef 8, ptr noundef nonnull @.str.49) #11
  br label %8

8:                                                ; preds = %7, %2
  %9 = getelementptr inbounds nuw i8, ptr %4, i64 56
  %10 = load ptr, ptr %9, align 8
  %11 = icmp eq ptr %10, null
  br i1 %11, label %12, label %31

12:                                               ; preds = %8
  %13 = getelementptr inbounds nuw i8, ptr %4, i64 48
  %14 = load ptr, ptr %13, align 8
  %15 = tail call ptr @list_dequeue(ptr noundef %14) #11
  store ptr %15, ptr %9, align 8
  %16 = icmp eq ptr %15, null
  %17 = tail call i32 @get_log_level() #11
  %18 = icmp sgt i32 %17, 8
  br i1 %16, label %19, label %21

19:                                               ; preds = %12
  br i1 %18, label %20, label %89

20:                                               ; preds = %19
  tail call void (i32, ptr, ...) @log_var(i32 noundef 9, ptr noundef nonnull @.str.50) #11
  br label %89

21:                                               ; preds = %12
  br i1 %18, label %22, label %26

22:                                               ; preds = %21
  %23 = load ptr, ptr %9, align 8
  %24 = getelementptr inbounds nuw i8, ptr %23, i64 4
  %25 = load i32, ptr %24, align 4
  tail call void (i32, ptr, ...) @log_var(i32 noundef 9, ptr noundef nonnull @.str.51, i32 noundef %25) #11
  br label %26

26:                                               ; preds = %22, %21
  %27 = load ptr, ptr %9, align 8
  %28 = getelementptr inbounds nuw i8, ptr %27, i64 4
  %29 = load i32, ptr %28, align 4
  %30 = getelementptr inbounds nuw i8, ptr %4, i64 64
  store i32 %29, ptr %30, align 8
  br label %31

31:                                               ; preds = %26, %8
  %32 = tail call i32 @get_log_level() #11
  %33 = icmp sgt i32 %32, 8
  br i1 %33, label %34, label %37

34:                                               ; preds = %31
  %35 = getelementptr inbounds nuw i8, ptr %4, i64 64
  %36 = load i32, ptr %35, align 8
  tail call void (i32, ptr, ...) @log_var(i32 noundef 9, ptr noundef nonnull @.str.52, i32 noundef %36) #11
  br label %37

37:                                               ; preds = %34, %31
  %38 = load ptr, ptr %9, align 8
  %39 = getelementptr inbounds nuw i8, ptr %38, i64 8
  %40 = load ptr, ptr %39, align 8
  %41 = getelementptr inbounds nuw i8, ptr %38, i64 4
  %42 = load i32, ptr %41, align 4
  %43 = getelementptr inbounds nuw i8, ptr %4, i64 64
  %44 = load i32, ptr %43, align 8
  %45 = sub i32 %42, %44
  %46 = zext i32 %45 to i64
  %47 = getelementptr inbounds nuw i8, ptr %40, i64 %46
  br label %48

48:                                               ; preds = %55, %37
  %49 = load i32, ptr %0, align 8
  %50 = load i32, ptr %43, align 8
  %51 = sext i32 %50 to i64
  %52 = tail call i64 @write(i32 noundef %49, ptr noundef %47, i64 noundef %51) #11
  %53 = trunc i64 %52 to i32
  %54 = icmp slt i32 %53, 0
  br i1 %54, label %55, label %72

55:                                               ; preds = %48
  %56 = tail call ptr @__errno_location() #13
  %57 = load i32, ptr %56, align 4
  switch i32 %57, label %62 [
    i32 4, label %48
    i32 11, label %58
  ]

58:                                               ; preds = %55
  %59 = tail call i32 @get_log_level() #11
  %60 = icmp sgt i32 %59, 8
  br i1 %60, label %61, label %89

61:                                               ; preds = %58
  tail call void (i32, ptr, ...) @log_var(i32 noundef 9, ptr noundef nonnull @.str.53) #11
  br label %89

62:                                               ; preds = %55
  %63 = getelementptr inbounds nuw i8, ptr %4, i64 68
  store i8 1, ptr %63, align 4
  %64 = getelementptr inbounds nuw i8, ptr %4, i64 48
  %65 = load ptr, ptr %64, align 8
  %66 = getelementptr inbounds nuw i8, ptr %4, i64 8
  %67 = load ptr, ptr %66, align 8
  %68 = tail call ptr @list_iterator_create(ptr noundef %65) #11
  %69 = tail call ptr @list_next(ptr noundef %68) #11
  %.not5.i = icmp eq ptr %69, null
  br i1 %.not5.i, label %_free_all_outgoing_msgs.exit, label %.lr.ph.i

.lr.ph.i:                                         ; preds = %62, %.lr.ph.i
  %70 = phi ptr [ %71, %.lr.ph.i ], [ %69, %62 ]
  tail call fastcc void @_free_outgoing_msg(ptr noundef nonnull %70, ptr noundef %67)
  %71 = tail call ptr @list_next(ptr noundef %68) #11
  %.not.i = icmp eq ptr %71, null
  br i1 %.not.i, label %_free_all_outgoing_msgs.exit, label %.lr.ph.i, !llvm.loop !16

_free_all_outgoing_msgs.exit:                     ; preds = %.lr.ph.i, %62
  tail call void @list_iterator_destroy(ptr noundef %68) #11
  br label %89

72:                                               ; preds = %48
  %73 = load i32, ptr %43, align 8
  %74 = icmp sgt i32 %73, %53
  br i1 %74, label %75, label %77

75:                                               ; preds = %72
  %76 = tail call i32 (ptr, ...) @error(ptr noundef nonnull @.str.54, i32 noundef %53, i32 noundef %73) #11
  br label %81

77:                                               ; preds = %72
  %78 = tail call i32 @get_log_level() #11
  %79 = icmp sgt i32 %78, 8
  br i1 %79, label %80, label %81

80:                                               ; preds = %77
  tail call void (i32, ptr, ...) @log_var(i32 noundef 9, ptr noundef nonnull @.str.55, i32 noundef %53) #11
  br label %81

81:                                               ; preds = %77, %80, %75
  %82 = load i32, ptr %43, align 8
  %83 = sub nsw i32 %82, %53
  store i32 %83, ptr %43, align 8
  %84 = icmp sgt i32 %83, 0
  br i1 %84, label %89, label %85

85:                                               ; preds = %81
  %86 = load ptr, ptr %9, align 8
  %87 = getelementptr inbounds nuw i8, ptr %4, i64 8
  %88 = load ptr, ptr %87, align 8
  tail call fastcc void @_free_outgoing_msg(ptr noundef %86, ptr noundef %88)
  store ptr null, ptr %9, align 8
  br label %89

89:                                               ; preds = %81, %58, %61, %19, %20, %85, %_free_all_outgoing_msgs.exit
  ret i32 0
}